target datalayout = "e-m:e-p270:32:32-p271:32:32-p272:64:64-i64:64-i128:128-f80:128-n8:16:32:64-S128"
target triple = "x86_64-unknown-linux-gnu"

%struct.VFIODevice = type { %struct.anon, %struct.anon.0, %struct.anon.1, ptr, ptr, ptr, ptr, ptr, i32, i32, i8, i8, i8, i8, i32, ptr, i32, i32, i32, ptr, ptr, i32, i8, i8 }
%struct.anon = type { ptr, ptr }
%struct.anon.0 = type { ptr, ptr }
%struct.anon.1 = type { ptr, ptr }
%struct.VFIOMigration = type { ptr, ptr, %struct.Notifier, i32, i32, ptr, i64, i64, i64, i64, i8 }
%struct.Notifier = type { ptr, %struct.anon.2 }
%struct.anon.2 = type { ptr, ptr }
%struct.vfio_device_feature = type { i32, i32, [0 x i8] }
%struct.timeval = type { i64, i64 }
%struct.vfio_device_feature_mig_state = type { i32, i32 }

@trace_events_enabled_count = external global i32, align 4
@message_with_timestamp = external global i8, align 1
@qemu_loglevel = external global i32, align 4
@.str.18 = private unnamed_addr constant [89 x i8] c"%s: Failed setting device state to %s, err: %s. Recover state is ERROR. Resetting device\00", align 1
@.str.19 = private unnamed_addr constant [83 x i8] c"%s: Failed setting device state to %s, err: %s. Setting device in recover state %s\00", align 1
@.str.20 = private unnamed_addr constant [70 x i8] c"%s: Failed setting device in recover state, err: %s. Resetting device\00", align 1
@.str.21 = private unnamed_addr constant [24 x i8] c"%s: data_fd out of sync\00", align 1
@.str.22 = private unnamed_addr constant [37 x i8] c"%s: Failed resetting device, err: %s\00", align 1
@.str.23 = private unnamed_addr constant [6 x i8] c"ERROR\00", align 1
@.str.24 = private unnamed_addr constant [5 x i8] c"STOP\00", align 1
@.str.25 = private unnamed_addr constant [8 x i8] c"RUNNING\00", align 1
@.str.26 = private unnamed_addr constant [10 x i8] c"STOP_COPY\00", align 1
@.str.27 = private unnamed_addr constant [9 x i8] c"RESUMING\00", align 1
@.str.28 = private unnamed_addr constant [12 x i8] c"RUNNING_P2P\00", align 1
@.str.29 = private unnamed_addr constant [9 x i8] c"PRE_COPY\00", align 1
@.str.30 = private unnamed_addr constant [13 x i8] c"PRE_COPY_P2P\00", align 1
@.str.31 = private unnamed_addr constant [14 x i8] c"UNKNOWN STATE\00", align 1
@_TRACE_VFIO_MIGRATION_SET_STATE_DSTATE = external global i16, align 2
@.str.32 = private unnamed_addr constant [54 x i8] c"%d@%zu.%06zu:vfio_migration_set_state  (%s) state %s\0A\00", align 1
@.str.33 = private unnamed_addr constant [41 x i8] c"vfio_migration_set_state  (%s) state %s\0A\00", align 1

; Function Attrs: nounwind sspstrong uwtable
define internal zeroext i1 @qemu_loglevel_mask(i32 noundef %mask) #0 {
entry:
  %mask.addr = alloca i32, align 4
  store i32 %mask, ptr %mask.addr, align 4
  %0 = load i32, ptr @qemu_loglevel, align 4
  %1 = load i32, ptr %mask.addr, align 4
  %and = and i32 %0, %1
  %cmp = icmp ne i32 %and, 0
  ret i1 %cmp
}

; Function Attrs: nounwind sspstrong uwtable
define internal void @_nocheck__trace_vfio_migration_set_state(ptr noundef %name, ptr noundef %state) #0 {
entry:
  %name.addr = alloca ptr, align 8
  %state.addr = alloca ptr, align 8
  %_now = alloca %struct.timeval, align 8
  store ptr %name, ptr %name.addr, align 8
  store ptr %state, ptr %state.addr, align 8
  %0 = load i32, ptr @trace_events_enabled_count, align 4
  %tobool = icmp ne i32 %0, 0
  %lnot = xor i1 %tobool, true
  %lnot1 = xor i1 %lnot, true
  %lnot.ext = zext i1 %lnot1 to i32
  %conv = sext i32 %lnot.ext to i64
  %tobool2 = icmp ne i64 %conv, 0
  br i1 %tobool2, label %land.lhs.true, label %if.end11

land.lhs.true:                                    ; preds = %entry
  %1 = load i16, ptr @_TRACE_VFIO_MIGRATION_SET_STATE_DSTATE, align 2
  %conv3 = zext i16 %1 to i32
  %tobool4 = icmp ne i32 %conv3, 0
  br i1 %tobool4, label %land.lhs.true5, label %if.end11

land.lhs.true5:                                   ; preds = %land.lhs.true
  %call = call zeroext i1 @qemu_loglevel_mask(i32 noundef 32768)
  br i1 %call, label %if.then, label %if.end11

if.then:                                          ; preds = %land.lhs.true5
  %2 = load i8, ptr @message_with_timestamp, align 1
  %tobool7 = trunc i8 %2 to i1
  br i1 %tobool7, label %if.then8, label %if.else

if.then8:                                         ; preds = %if.then
  %call9 = call i32 @gettimeofday(ptr noundef %_now, ptr noundef null) #9
  %call10 = call i32 @qemu_get_thread_id()
  %tv_sec = getelementptr inbounds %struct.timeval, ptr %_now, i32 0, i32 0
  %3 = load i64, ptr %tv_sec, align 8
  %tv_usec = getelementptr inbounds %struct.timeval, ptr %_now, i32 0, i32 1
  %4 = load i64, ptr %tv_usec, align 8
  %5 = load ptr, ptr %name.addr, align 8
  %6 = load ptr, ptr %state.addr, align 8
  call void (ptr, ...) @qemu_log(ptr noundef @.str.32, i32 noundef %call10, i64 noundef %3, i64 noundef %4, ptr noundef %5, ptr noundef %6)
  br label %if.end

if.else:                                          ; preds = %if.then
  %7 = load ptr, ptr %name.addr, align 8
  %8 = load ptr, ptr %state.addr, align 8
  call void (ptr, ...) @qemu_log(ptr noundef @.str.33, ptr noundef %7, ptr noundef %8)
  br label %if.end

if.end:                                           ; preds = %if.else, %if.then8
  br label %if.end11

if.end11:                                         ; preds = %if.end, %land.lhs.true5, %land.lhs.true, %entry
  ret void
}

; Function Attrs: nounwind sspstrong uwtable
define internal void @trace_vfio_migration_set_state(ptr noundef %name, ptr noundef %state) #0 {
entry:
  %name.addr = alloca ptr, align 8
  %state.addr = alloca ptr, align 8
  store ptr %name, ptr %name.addr, align 8
  store ptr %state, ptr %state.addr, align 8
  %0 = load ptr, ptr %name.addr, align 8
  %1 = load ptr, ptr %state.addr, align 8
  call void @_nocheck__trace_vfio_migration_set_state(ptr noundef %0, ptr noundef %1)
  ret void
}

; Function Attrs: nounwind sspstrong uwtable
define internal ptr @mig_state_to_str(i32 noundef %state) #0 {
entry:
  %retval = alloca ptr, align 8
  %state.addr = alloca i32, align 4
  store i32 %state, ptr %state.addr, align 4
  %0 = load i32, ptr %state.addr, align 4
  switch i32 %0, label %sw.default [
    i32 0, label %sw.bb
    i32 1, label %sw.bb1
    i32 2, label %sw.bb2
    i32 3, label %sw.bb3
    i32 4, label %sw.bb4
    i32 5, label %sw.bb5
    i32 6, label %sw.bb6
    i32 7, label %sw.bb7
  ]

sw.bb:                                            ; preds = %entry
  store ptr @.str.23, ptr %retval, align 8
  br label %return

sw.bb1:                                           ; preds = %entry
  store ptr @.str.24, ptr %retval, align 8
  br label %return

sw.bb2:                                           ; preds = %entry
  store ptr @.str.25, ptr %retval, align 8
  br label %return

sw.bb3:                                           ; preds = %entry
  store ptr @.str.26, ptr %retval, align 8
  br label %return

sw.bb4:                                           ; preds = %entry
  store ptr @.str.27, ptr %retval, align 8
  br label %return

sw.bb5:                                           ; preds = %entry
  store ptr @.str.28, ptr %retval, align 8
  br label %return

sw.bb6:                                           ; preds = %entry
  store ptr @.str.29, ptr %retval, align 8
  br label %return

sw.bb7:                                           ; preds = %entry
  store ptr @.str.30, ptr %retval, align 8
  br label %return

sw.default:                                       ; preds = %entry
  store ptr @.str.31, ptr %retval, align 8
  br label %return

return:                                           ; preds = %sw.default, %sw.bb7, %sw.bb6, %sw.bb5, %sw.bb4, %sw.bb3, %sw.bb2, %sw.bb1, %sw.bb
  %1 = load ptr, ptr %retval, align 8
  ret ptr %1
}

; Function Attrs: nounwind sspstrong uwtable
define internal i32 @vfio_migration_set_state(ptr noundef %vbasedev, i32 noundef %new_state, i32 noundef %recover_state) #0 {
entry:
  %retval = alloca i32, align 4
  %vbasedev.addr = alloca ptr, align 8
  %new_state.addr = alloca i32, align 4
  %recover_state.addr = alloca i32, align 4
  %migration = alloca ptr, align 8
  %buf = alloca [2 x i64], align 16
  %feature = alloca ptr, align 8
  %mig_state = alloca ptr, align 8
  %ret = alloca i32, align 4
  store ptr %vbasedev, ptr %vbasedev.addr, align 8
  store i32 %new_state, ptr %new_state.addr, align 4
  store i32 %recover_state, ptr %recover_state.addr, align 4
  %0 = load ptr, ptr %vbasedev.addr, align 8
  %migration1 = getelementptr inbounds %struct.VFIODevice, ptr %0, i32 0, i32 19
  %1 = load ptr, ptr %migration1, align 8
  store ptr %1, ptr %migration, align 8
  call void @llvm.memset.p0.i64(ptr align 16 %buf, i8 0, i64 16, i1 false)
  %arraydecay = getelementptr inbounds [2 x i64], ptr %buf, i64 0, i64 0
  store ptr %arraydecay, ptr %feature, align 8
  %2 = load ptr, ptr %feature, align 8
  %data = getelementptr inbounds %struct.vfio_device_feature, ptr %2, i32 0, i32 2
  %arraydecay2 = getelementptr inbounds [0 x i8], ptr %data, i64 0, i64 0
  store ptr %arraydecay2, ptr %mig_state, align 8
  %3 = load ptr, ptr %feature, align 8
  %argsz = getelementptr inbounds %struct.vfio_device_feature, ptr %3, i32 0, i32 0
  store i32 16, ptr %argsz, align 4
  %4 = load ptr, ptr %feature, align 8
  %flags = getelementptr inbounds %struct.vfio_device_feature, ptr %4, i32 0, i32 1
  store i32 131074, ptr %flags, align 4
  %5 = load i32, ptr %new_state.addr, align 4
  %6 = load ptr, ptr %mig_state, align 8
  %device_state = getelementptr inbounds %struct.vfio_device_feature_mig_state, ptr %6, i32 0, i32 0
  store i32 %5, ptr %device_state, align 4
  %7 = load ptr, ptr %vbasedev.addr, align 8
  %fd = getelementptr inbounds %struct.VFIODevice, ptr %7, i32 0, i32 8
  %8 = load i32, ptr %fd, align 8
  %9 = load ptr, ptr %feature, align 8
  %call = call i32 (i32, i64, ...) @ioctl(i32 noundef %8, i64 noundef 15221, ptr noundef %9) #9
  %tobool = icmp ne i32 %call, 0
  br i1 %tobool, label %if.then, label %if.end25

if.then:                                          ; preds = %entry
  %call3 = call ptr @__errno_location() #11
  %10 = load i32, ptr %call3, align 4
  %sub = sub i32 0, %10
  store i32 %sub, ptr %ret, align 4
  %11 = load i32, ptr %recover_state.addr, align 4
  %cmp = icmp eq i32 %11, 0
  br i1 %cmp, label %if.then4, label %if.end

if.then4:                                         ; preds = %if.then
  %12 = load ptr, ptr %vbasedev.addr, align 8
  %name = getelementptr inbounds %struct.VFIODevice, ptr %12, i32 0, i32 6
  %13 = load ptr, ptr %name, align 8
  %14 = load i32, ptr %new_state.addr, align 4
  %call5 = call ptr @mig_state_to_str(i32 noundef %14)
  %call6 = call ptr @__errno_location() #11
  %15 = load i32, ptr %call6, align 4
  %call7 = call ptr @strerror(i32 noundef %15) #9
  call void (ptr, ...) @error_report(ptr noundef @.str.18, ptr noundef %13, ptr noundef %call5, ptr noundef %call7)
  br label %reset_device

if.end:                                           ; preds = %if.then
  %16 = load ptr, ptr %vbasedev.addr, align 8
  %name8 = getelementptr inbounds %struct.VFIODevice, ptr %16, i32 0, i32 6
  %17 = load ptr, ptr %name8, align 8
  %18 = load i32, ptr %new_state.addr, align 4
  %call9 = call ptr @mig_state_to_str(i32 noundef %18)
  %call10 = call ptr @__errno_location() #11
  %19 = load i32, ptr %call10, align 4
  %call11 = call ptr @strerror(i32 noundef %19) #9
  %20 = load i32, ptr %recover_state.addr, align 4
  %call12 = call ptr @mig_state_to_str(i32 noundef %20)
  call void (ptr, ...) @error_report(ptr noundef @.str.19, ptr noundef %17, ptr noundef %call9, ptr noundef %call11, ptr noundef %call12)
  %21 = load i32, ptr %recover_state.addr, align 4
  %22 = load ptr, ptr %mig_state, align 8
  %device_state13 = getelementptr inbounds %struct.vfio_device_feature_mig_state, ptr %22, i32 0, i32 0
  store i32 %21, ptr %device_state13, align 4
  %23 = load ptr, ptr %vbasedev.addr, align 8
  %fd14 = getelementptr inbounds %struct.VFIODevice, ptr %23, i32 0, i32 8
  %24 = load i32, ptr %fd14, align 8
  %25 = load ptr, ptr %feature, align 8
  %call15 = call i32 (i32, i64, ...) @ioctl(i32 noundef %24, i64 noundef 15221, ptr noundef %25) #9
  %tobool16 = icmp ne i32 %call15, 0
  br i1 %tobool16, label %if.then17, label %if.end23

if.then17:                                        ; preds = %if.end
  %call18 = call ptr @__errno_location() #11
  %26 = load i32, ptr %call18, align 4
  %sub19 = sub i32 0, %26
  store i32 %sub19, ptr %ret, align 4
  %27 = load ptr, ptr %vbasedev.addr, align 8
  %name20 = getelementptr inbounds %struct.VFIODevice, ptr %27, i32 0, i32 6
  %28 = load ptr, ptr %name20, align 8
  %call21 = call ptr @__errno_location() #11
  %29 = load i32, ptr %call21, align 4
  %call22 = call ptr @strerror(i32 noundef %29) #9
  call void (ptr, ...) @error_report(ptr noundef @.str.20, ptr noundef %28, ptr noundef %call22)
  br label %reset_device

if.end23:                                         ; preds = %if.end
  %30 = load i32, ptr %recover_state.addr, align 4
  %31 = load ptr, ptr %migration, align 8
  %device_state24 = getelementptr inbounds %struct.VFIOMigration, ptr %31, i32 0, i32 3
  store i32 %30, ptr %device_state24, align 8
  %32 = load i32, ptr %ret, align 4
  store i32 %32, ptr %retval, align 4
  br label %return

if.end25:                                         ; preds = %entry
  %33 = load i32, ptr %new_state.addr, align 4
  %34 = load ptr, ptr %migration, align 8
  %device_state26 = getelementptr inbounds %struct.VFIOMigration, ptr %34, i32 0, i32 3
  store i32 %33, ptr %device_state26, align 8
  %35 = load ptr, ptr %mig_state, align 8
  %data_fd = getelementptr inbounds %struct.vfio_device_feature_mig_state, ptr %35, i32 0, i32 1
  %36 = load i32, ptr %data_fd, align 4
  %cmp27 = icmp ne i32 %36, -1
  br i1 %cmp27, label %if.then28, label %if.end38

if.then28:                                        ; preds = %if.end25
  %37 = load ptr, ptr %migration, align 8
  %data_fd29 = getelementptr inbounds %struct.VFIOMigration, ptr %37, i32 0, i32 4
  %38 = load i32, ptr %data_fd29, align 4
  %cmp30 = icmp ne i32 %38, -1
  br i1 %cmp30, label %if.then31, label %if.end35

if.then31:                                        ; preds = %if.then28
  %39 = load ptr, ptr %vbasedev.addr, align 8
  %name32 = getelementptr inbounds %struct.VFIODevice, ptr %39, i32 0, i32 6
  %40 = load ptr, ptr %name32, align 8
  call void (ptr, ...) @error_report(ptr noundef @.str.21, ptr noundef %40)
  %41 = load ptr, ptr %mig_state, align 8
  %data_fd33 = getelementptr inbounds %struct.vfio_device_feature_mig_state, ptr %41, i32 0, i32 1
  %42 = load i32, ptr %data_fd33, align 4
  %call34 = call i32 @close(i32 noundef %42)
  store i32 -9, ptr %retval, align 4
  br label %return

if.end35:                                         ; preds = %if.then28
  %43 = load ptr, ptr %mig_state, align 8
  %data_fd36 = getelementptr inbounds %struct.vfio_device_feature_mig_state, ptr %43, i32 0, i32 1
  %44 = load i32, ptr %data_fd36, align 4
  %45 = load ptr, ptr %migration, align 8
  %data_fd37 = getelementptr inbounds %struct.VFIOMigration, ptr %45, i32 0, i32 4
  store i32 %44, ptr %data_fd37, align 4
  br label %if.end38

if.end38:                                         ; preds = %if.end35, %if.end25
  %46 = load ptr, ptr %vbasedev.addr, align 8
  %name39 = getelementptr inbounds %struct.VFIODevice, ptr %46, i32 0, i32 6
  %47 = load ptr, ptr %name39, align 8
  %48 = load i32, ptr %new_state.addr, align 4
  %call40 = call ptr @mig_state_to_str(i32 noundef %48)
  call void @trace_vfio_migration_set_state(ptr noundef %47, ptr noundef %call40)
  store i32 0, ptr %retval, align 4
  br label %return

reset_device:                                     ; preds = %if.then17, %if.then4
  %49 = load ptr, ptr %vbasedev.addr, align 8
  %fd41 = getelementptr inbounds %struct.VFIODevice, ptr %49, i32 0, i32 8
  %50 = load i32, ptr %fd41, align 8
  %call42 = call i32 (i32, i64, ...) @ioctl(i32 noundef %50, i64 noundef 15215) #9
  %tobool43 = icmp ne i32 %call42, 0
  br i1 %tobool43, label %if.then44, label %if.end48

if.then44:                                        ; preds = %reset_device
  %51 = load ptr, ptr %vbasedev.addr, align 8
  %name45 = getelementptr inbounds %struct.VFIODevice, ptr %51, i32 0, i32 6
  %52 = load ptr, ptr %name45, align 8
  %call46 = call ptr @__errno_location() #11
  %53 = load i32, ptr %call46, align 4
  %call47 = call ptr @strerror(i32 noundef %53) #9
  call void (ptr, ...) @hw_error(ptr noundef @.str.22, ptr noundef %52, ptr noundef %call47) #13
  unreachable

if.end48:                                         ; preds = %reset_device
  %54 = load ptr, ptr %migration, align 8
  %device_state49 = getelementptr inbounds %struct.VFIOMigration, ptr %54, i32 0, i32 3
  store i32 2, ptr %device_state49, align 8
  %55 = load i32, ptr %ret, align 4
  store i32 %55, ptr %retval, align 4
  br label %return

return:                                           ; preds = %if.end48, %if.end38, %if.then31, %if.end23
  %56 = load i32, ptr %retval, align 4
  ret i32 %56
}