; Function Attrs: nounwind sspstrong uwtable
define internal fastcc i32 @vfio_migration_set_state(ptr noundef readonly captures(none) %vbasedev, i32 noundef range(i32 1, 8) %new_state, i32 noundef %recover_state) unnamed_addr #2 {
entry:
  %_now.i.i = alloca %struct.timeval, align 8
  %buf = alloca [2 x i64], align 16
  %migration1 = getelementptr inbounds nuw i8, ptr %vbasedev, i64 128
  %0 = load ptr, ptr %migration1, align 8
  call void @llvm.memset.p0.i64(ptr noundef nonnull align 16 dereferenceable(16) %buf, i8 0, i64 16, i1 false)
  %data = getelementptr inbounds nuw i8, ptr %buf, i64 8
  store i32 16, ptr %buf, align 16
  %flags = getelementptr inbounds nuw i8, ptr %buf, i64 4
  store i32 131074, ptr %flags, align 4
  store i32 %new_state, ptr %data, align 8
  %fd = getelementptr inbounds nuw i8, ptr %vbasedev, i64 88
  %1 = load i32, ptr %fd, align 8
  %call = call i32 (i32, i64, ...) @ioctl(i32 noundef %1, i64 noundef 15221, ptr noundef nonnull %buf) #16
  %tobool.not = icmp eq i32 %call, 0
  br i1 %tobool.not, label %if.end25, label %if.then

if.then:                                          ; preds = %entry
  %call3 = tail call ptr @__errno_location() #17
  %2 = load i32, ptr %call3, align 4
  %sub = sub i32 0, %2
  %cmp = icmp eq i32 %recover_state, 0
  %name = getelementptr inbounds nuw i8, ptr %vbasedev, i64 72
  %3 = load ptr, ptr %name, align 8
  %switch.tableidx = add nsw i32 %new_state, -1
  br i1 %cmp, label %if.then4, label %if.end

if.then4:                                         ; preds = %if.then
  %4 = sext i32 %switch.tableidx to i64
  %switch.gep = getelementptr inbounds [7 x ptr], ptr @switch.table.vfio_migration_set_state.10, i64 0, i64 %4
  %switch.load = load ptr, ptr %switch.gep, align 8
  %call7 = call ptr @strerror(i32 noundef %2) #16
  call void (ptr, ...) @error_report(ptr noundef nonnull @.str.18, ptr noundef %3, ptr noundef nonnull %switch.load, ptr noundef %call7) #16
  br label %reset_device

if.end:                                           ; preds = %if.then
  %5 = sext i32 %switch.tableidx to i64
  %switch.gep61 = getelementptr inbounds [7 x ptr], ptr @switch.table.vfio_migration_set_state.10, i64 0, i64 %5
  %switch.load62 = load ptr, ptr %switch.gep61, align 8
  %call11 = call ptr @strerror(i32 noundef %2) #16
  %6 = icmp ult i32 %recover_state, 8
  br i1 %6, label %switch.lookup, label %mig_state_to_str.exit47

switch.lookup:                                    ; preds = %if.end
  %switch.tableidx66 = add i32 %recover_state, -1
  %7 = sext i32 %switch.tableidx66 to i64
  %switch.gep67 = getelementptr inbounds [7 x ptr], ptr @switch.table.vfio_migration_set_state.10, i64 0, i64 %7
  %switch.load68 = load ptr, ptr %switch.gep67, align 8
  br label %mig_state_to_str.exit47

mig_state_to_str.exit47:                          ; preds = %if.end, %switch.lookup
  %retval.0.i40 = phi ptr [ %switch.load68, %switch.lookup ], [ @.str.31, %if.end ]
  call void (ptr, ...) @error_report(ptr noundef nonnull @.str.19, ptr noundef %3, ptr noundef nonnull %switch.load62, ptr noundef %call11, ptr noundef nonnull %retval.0.i40) #16
  store i32 %recover_state, ptr %data, align 8
  %8 = load i32, ptr %fd, align 8
  %call15 = call i32 (i32, i64, ...) @ioctl(i32 noundef %8, i64 noundef 15221, ptr noundef nonnull %buf) #16
  %tobool16.not = icmp eq i32 %call15, 0
  br i1 %tobool16.not, label %if.end23, label %if.then17

if.then17:                                        ; preds = %mig_state_to_str.exit47
  %9 = load i32, ptr %call3, align 4
  %sub19 = sub i32 0, %9
  %10 = load ptr, ptr %name, align 8
  %call22 = call ptr @strerror(i32 noundef %9) #16
  call void (ptr, ...) @error_report(ptr noundef nonnull @.str.20, ptr noundef %10, ptr noundef %call22) #16
  br label %reset_device

if.end23:                                         ; preds = %mig_state_to_str.exit47
  %device_state24 = getelementptr inbounds nuw i8, ptr %0, i64 40
  store i32 %recover_state, ptr %device_state24, align 8
  br label %return

if.end25:                                         ; preds = %entry
  %device_state26 = getelementptr inbounds nuw i8, ptr %0, i64 40
  store i32 %new_state, ptr %device_state26, align 8
  %data_fd = getelementptr inbounds nuw i8, ptr %buf, i64 12
  %11 = load i32, ptr %data_fd, align 4
  %cmp27.not = icmp eq i32 %11, -1
  br i1 %cmp27.not, label %if.end38, label %if.then28

if.then28:                                        ; preds = %if.end25
  %data_fd29 = getelementptr inbounds nuw i8, ptr %0, i64 44
  %12 = load i32, ptr %data_fd29, align 4
  %cmp30.not = icmp eq i32 %12, -1
  br i1 %cmp30.not, label %if.end35, label %if.then31

if.then31:                                        ; preds = %if.then28
  %name32 = getelementptr inbounds nuw i8, ptr %vbasedev, i64 72
  %13 = load ptr, ptr %name32, align 8
  call void (ptr, ...) @error_report(ptr noundef nonnull @.str.21, ptr noundef %13) #16
  %14 = load i32, ptr %data_fd, align 4
  %call34 = call i32 @close(i32 noundef %14) #16
  br label %return

if.end35:                                         ; preds = %if.then28
  store i32 %11, ptr %data_fd29, align 4
  br label %if.end38

if.end38:                                         ; preds = %if.end35, %if.end25
  %name39 = getelementptr inbounds nuw i8, ptr %vbasedev, i64 72
  %15 = load ptr, ptr %name39, align 8
  %switch.tableidx63 = add nsw i32 %new_state, -1
  %16 = sext i32 %switch.tableidx63 to i64
  %switch.gep64 = getelementptr inbounds [7 x ptr], ptr @switch.table.vfio_migration_set_state.10, i64 0, i64 %16
  %switch.load65 = load ptr, ptr %switch.gep64, align 8
  call void @llvm.lifetime.start.p0(i64 16, ptr nonnull %_now.i.i)
  %17 = load i32, ptr @trace_events_enabled_count, align 4
  %tobool.i.i = icmp ne i32 %17, 0
  %18 = load i16, ptr @_TRACE_VFIO_MIGRATION_SET_STATE_DSTATE, align 2
  %tobool4.i.i = icmp ne i16 %18, 0
  %or.cond.i.i = select i1 %tobool.i.i, i1 %tobool4.i.i, i1 false
  br i1 %or.cond.i.i, label %land.lhs.true5.i.i, label %trace_vfio_migration_set_state.exit

land.lhs.true5.i.i:                               ; preds = %if.end38
  %19 = load i32, ptr @qemu_loglevel, align 4
  %and.i.i.i = and i32 %19, 32768
  %cmp.i.not.i.i = icmp eq i32 %and.i.i.i, 0
  br i1 %cmp.i.not.i.i, label %trace_vfio_migration_set_state.exit, label %if.then.i.i

if.then.i.i:                                      ; preds = %land.lhs.true5.i.i
  %20 = load i8, ptr @message_with_timestamp, align 1
  %tobool7.i.i = trunc i8 %20 to i1
  br i1 %tobool7.i.i, label %if.then8.i.i, label %if.else.i.i

if.then8.i.i:                                     ; preds = %if.then.i.i
  %call9.i.i = call i32 @gettimeofday(ptr noundef nonnull %_now.i.i, ptr noundef null) #16
  %call10.i.i = call i32 @qemu_get_thread_id() #16
  %21 = load i64, ptr %_now.i.i, align 8
  %tv_usec.i.i = getelementptr inbounds nuw i8, ptr %_now.i.i, i64 8
  %22 = load i64, ptr %tv_usec.i.i, align 8
  call void (ptr, ...) @qemu_log(ptr noundef nonnull @.str.32, i32 noundef %call10.i.i, i64 noundef %21, i64 noundef %22, ptr noundef %15, ptr noundef nonnull %switch.load65) #16
  br label %trace_vfio_migration_set_state.exit

if.else.i.i:                                      ; preds = %if.then.i.i
  call void (ptr, ...) @qemu_log(ptr noundef nonnull @.str.33, ptr noundef %15, ptr noundef nonnull %switch.load65) #16
  br label %trace_vfio_migration_set_state.exit

trace_vfio_migration_set_state.exit:              ; preds = %if.end38, %land.lhs.true5.i.i, %if.then8.i.i, %if.else.i.i
  call void @llvm.lifetime.end.p0(i64 16, ptr nonnull %_now.i.i)
  br label %return

reset_device:                                     ; preds = %if.then17, %if.then4
  %ret.0 = phi i32 [ %sub, %if.then4 ], [ %sub19, %if.then17 ]
  %23 = load i32, ptr %fd, align 8
  %call42 = call i32 (i32, i64, ...) @ioctl(i32 noundef %23, i64 noundef 15215) #16
  %tobool43.not = icmp eq i32 %call42, 0
  br i1 %tobool43.not, label %if.end48, label %if.then44

if.then44:                                        ; preds = %reset_device
  %name45 = getelementptr inbounds nuw i8, ptr %vbasedev, i64 72
  %24 = load ptr, ptr %name45, align 8
  %25 = load i32, ptr %call3, align 4
  %call47 = call ptr @strerror(i32 noundef %25) #16
  call void (ptr, ...) @hw_error(ptr noundef nonnull @.str.22, ptr noundef %24, ptr noundef %call47) #20
  unreachable

if.end48:                                         ; preds = %reset_device
  %device_state49 = getelementptr inbounds nuw i8, ptr %0, i64 40
  store i32 2, ptr %device_state49, align 8
  br label %return

return:                                           ; preds = %if.end48, %trace_vfio_migration_set_state.exit, %if.then31, %if.end23
  %retval.0 = phi i32 [ %ret.0, %if.end48 ], [ %sub, %if.end23 ], [ -9, %if.then31 ], [ 0, %trace_vfio_migration_set_state.exit ]
  ret i32 %retval.0
}